; Function Attrs: mustprogress nounwind uwtable
define hidden noundef i64 @_ZNK16MutableNUMASpace13tlab_capacityEP6Thread(ptr nocapture noundef nonnull readonly align 8 dereferenceable(96) %0, ptr noundef readonly %1) unnamed_addr #0 align 2 {
  %.not = icmp eq ptr %1, null
  br i1 %.not, label %3, label %5

3:                                                ; preds = %2
  %4 = load ptr, ptr @g_assert_poison, align 8
  store i8 88, ptr %4, align 1
  tail call void (ptr, i32, ptr, ptr, ...) @_Z15report_vm_errorPKciS0_S0_z(ptr noundef nonnull @.str, i32 noundef 138, ptr noundef nonnull @.str.4, ptr noundef nonnull @.str.5) #12
  unreachable

5:                                                ; preds = %2
  %6 = getelementptr inbounds i8, ptr %1, i64 840
  %7 = load i32, ptr %6, align 8
  %8 = icmp eq i32 %7, -1
  %9 = getelementptr inbounds i8, ptr %0, i64 56
  %10 = load ptr, ptr %9, align 8
  br i1 %8, label %11, label %25

11:                                               ; preds = %5
  %12 = load i32, ptr %10, align 4
  %13 = icmp sgt i32 %12, 0
  br i1 %13, label %14, label %_ZNK16MutableNUMASpace16lgrp_space_indexEi.exit.thread

14:                                               ; preds = %11
  %15 = getelementptr inbounds i8, ptr %0, i64 48
  %16 = load ptr, ptr %15, align 8
  %17 = getelementptr inbounds i8, ptr %0, i64 32
  %18 = load ptr, ptr %17, align 8
  %19 = ptrtoint ptr %16 to i64
  %20 = ptrtoint ptr %18 to i64
  %21 = sub i64 %19, %20
  %22 = and i64 %21, -8
  %23 = zext nneg i32 %12 to i64
  %24 = udiv i64 %22, %23
  br label %_ZNK16MutableNUMASpace16lgrp_space_indexEi.exit.thread

25:                                               ; preds = %5
  %.val.i = load i32, ptr %10, align 8
  %26 = getelementptr i8, ptr %10, i64 8
  %.val1.i = load ptr, ptr %26, align 8
  %27 = icmp sgt i32 %.val.i, 0
  br i1 %27, label %.lr.ph.i.i, label %_ZNK16MutableNUMASpace16lgrp_space_indexEi.exit.thread

.lr.ph.i.i:                                       ; preds = %25
  %wide.trip.count.i.i = zext nneg i32 %.val.i to i64
  br label %28

28:                                               ; preds = %32, %.lr.ph.i.i
  %indvars.iv.i.i = phi i64 [ 0, %.lr.ph.i.i ], [ %indvars.iv.next.i.i, %32 ]
  %29 = getelementptr inbounds ptr, ptr %.val1.i, i64 %indvars.iv.i.i
  %30 = load ptr, ptr %29, align 8
  %.val6.i.i = load i32, ptr %30, align 8
  %31 = icmp eq i32 %.val6.i.i, %7
  br i1 %31, label %_ZNK16MutableNUMASpace16lgrp_space_indexEi.exit, label %32

32:                                               ; preds = %28
  %indvars.iv.next.i.i = add nuw nsw i64 %indvars.iv.i.i, 1
  %exitcond.not.i.i = icmp eq i64 %indvars.iv.next.i.i, %wide.trip.count.i.i
  br i1 %exitcond.not.i.i, label %_ZNK16MutableNUMASpace16lgrp_space_indexEi.exit.thread, label %28, !llvm.loop !13

_ZNK16MutableNUMASpace16lgrp_space_indexEi.exit:  ; preds = %28
  %sext = shl i64 %indvars.iv.i.i, 32
  %33 = ashr exact i64 %sext, 29
  %34 = getelementptr inbounds i8, ptr %.val1.i, i64 %33
  %35 = load ptr, ptr %34, align 8
  %36 = getelementptr inbounds i8, ptr %35, i64 8
  %37 = load ptr, ptr %36, align 8
  %38 = getelementptr inbounds i8, ptr %37, i64 48
  %39 = load ptr, ptr %38, align 8
  %40 = getelementptr inbounds i8, ptr %37, i64 32
  %41 = load ptr, ptr %40, align 8
  %42 = ptrtoint ptr %39 to i64
  %43 = ptrtoint ptr %41 to i64
  %44 = sub i64 %42, %43
  %45 = and i64 %44, -8
  br label %_ZNK16MutableNUMASpace16lgrp_space_indexEi.exit.thread

_ZNK16MutableNUMASpace16lgrp_space_indexEi.exit.thread: ; preds = %32, %25, %11, %_ZNK16MutableNUMASpace16lgrp_space_indexEi.exit, %14
  %.0 = phi i64 [ %24, %14 ], [ %45, %_ZNK16MutableNUMASpace16lgrp_space_indexEi.exit ], [ 0, %11 ], [ 0, %25 ], [ 0, %32 ]
  ret i64 %.0
}